target datalayout = "e-m:e-p270:32:32-p271:32:32-p272:64:64-i64:64-i128:128-f80:128-n8:16:32:64-S128"
target triple = "x86_64-unknown-linux-gnu"

%struct.__sigset_t = type { [16 x i64] }
%struct.CPUState = type { %struct.DeviceState, ptr, i32, i32, ptr, i32, i8, i8, ptr, i8, i8, i8, i8, i8, i8, i8, i8, i32, i32, i32, i32, i64, i64, i64, [1 x %struct.__jmp_buf_tag], %struct.QemuMutex, %struct.anon, ptr, i32, ptr, ptr, ptr, ptr, i32, i32, %union.anon, %union.anon.0, %union.anon.1, ptr, ptr, i64, i32, ptr, ptr, ptr, i32, i64, i32, %struct.QemuLockCnt, [1 x i64], ptr, i32, i32, i32, i32, i32, ptr, i8, i8, i64, i8, i8, ptr, [8 x i8], [0 x i8], %struct.CPUNegativeOffsetState }
%struct.DeviceState = type { %struct.Object, ptr, ptr, i8, i8, i64, ptr, i32, i8, ptr, %struct.NamedGPIOListHead, %struct.NamedClockListHead, %struct.BusStateHead, i32, i32, i32, %struct.ResettableState, ptr, %struct.MemReentrancyGuard }
%struct.Object = type { ptr, ptr, ptr, i32, ptr }
%struct.NamedGPIOListHead = type { ptr }
%struct.NamedClockListHead = type { ptr }
%struct.BusStateHead = type { ptr }
%struct.ResettableState = type { i32, i8, i8 }
%struct.MemReentrancyGuard = type { i8 }
%struct.__jmp_buf_tag = type { [8 x i64], i32, %struct.__sigset_t }
%struct.QemuMutex = type { %union.pthread_mutex_t, i8 }
%union.pthread_mutex_t = type { %struct.__pthread_mutex_s }
%struct.__pthread_mutex_s = type { i32, i32, i32, i32, i32, i16, i16, %struct.__pthread_internal_list }
%struct.__pthread_internal_list = type { ptr, ptr }
%struct.anon = type { ptr, ptr }
%union.anon = type { %struct.QTailQLink }
%struct.QTailQLink = type { ptr, ptr }
%union.anon.0 = type { %struct.QTailQLink }
%union.anon.1 = type { %struct.QTailQLink }
%struct.QemuLockCnt = type { i32 }
%struct.CPUNegativeOffsetState = type { %struct.CPUTLB, %union.IcountDecr, i8, [11 x i8] }
%struct.CPUTLB = type { %struct.CPUTLBCommon, [16 x %struct.CPUTLBDesc], [16 x %struct.CPUTLBDescFast] }
%struct.CPUTLBCommon = type { %struct.QemuSpin, i16, i64, i64, i64 }
%struct.QemuSpin = type { i32 }
%struct.CPUTLBDesc = type { i64, i64, i64, i64, i64, i64, [8 x %union.CPUTLBEntry], [8 x %struct.CPUTLBEntryFull], ptr }
%union.CPUTLBEntry = type { %struct.anon.2 }
%struct.anon.2 = type { i64, i64, i64, i64 }
%struct.CPUTLBEntryFull = type { i64, i64, %struct.MemTxAttrs, i8, i8, [3 x i8], %union.anon.3 }
%struct.MemTxAttrs = type { i32 }
%union.anon.3 = type { %struct.anon.4 }
%struct.anon.4 = type { i8, i8, i8 }
%struct.CPUTLBDescFast = type { i64, ptr }
%union.IcountDecr = type { i32 }
%struct.TaskState = type { i32, i32, i64, i64, i64, i64, i32, ptr, ptr, %struct.emulated_sigtable, [64 x %struct.emulated_sigtable], %struct.__sigset_t, %struct.__sigset_t, i32, i32, %struct.target_sigaltstack, i64 }
%struct.emulated_sigtable = type { i32, %struct.target_siginfo }
%struct.target_siginfo = type { i32, i32, i32, %union.anon.6 }
%union.anon.6 = type { %struct.anon.10, [80 x i8] }
%struct.anon.10 = type { i32, i32, i32, i64, i64 }
%struct.target_sigaltstack = type { i64, i32, i64 }
%struct.CPUArchState = type { [32 x i64], [32 x i64], [512 x i64], i64, i64, i64, i64, i64, i8, i64, i64, i64, [32 x i64], i64, %struct.float_status, i64, i64, i64, i64, i64, i64, i32, i32, i32, i32, i32, i64, i64, i32, i64, i64, ptr, ptr, i8, i64, i64, [8 x i8] }
%struct.float_status = type { i16, i8, i8, i8, i8, i8, i8, i8, i8, i8, i8, i8 }

@thread_cpu = external thread_local global ptr, align 8

; Function Attrs: nounwind sspstrong uwtable
define internal i32 @ldl_he_p(ptr noundef %ptr) #0 {
entry:
  %ptr.addr = alloca ptr, align 8
  %r = alloca i32, align 4
  store ptr %ptr, ptr %ptr.addr, align 8
  %0 = load ptr, ptr %ptr.addr, align 8
  call void @llvm.memcpy.p0.p0.i64(ptr align 4 %r, ptr align 1 %0, i64 4, i1 false)
  %1 = load i32, ptr %r, align 4
  ret i32 %1
}

; Function Attrs: nounwind sspstrong uwtable
define internal i64 @ldq_he_p(ptr noundef %ptr) #0 {
entry:
  %ptr.addr = alloca ptr, align 8
  %r = alloca i64, align 8
  store ptr %ptr, ptr %ptr.addr, align 8
  %0 = load ptr, ptr %ptr.addr, align 8
  call void @llvm.memcpy.p0.p0.i64(ptr align 8 %r, ptr align 1 %0, i64 8, i1 false)
  %1 = load i64, ptr %r, align 8
  ret i64 %1
}

; Function Attrs: nounwind sspstrong uwtable
define internal void @stl_he_p(ptr noundef %ptr, i32 noundef %v) #0 {
entry:
  %ptr.addr = alloca ptr, align 8
  %v.addr = alloca i32, align 4
  store ptr %ptr, ptr %ptr.addr, align 8
  store i32 %v, ptr %v.addr, align 4
  %0 = load ptr, ptr %ptr.addr, align 8
  call void @llvm.memcpy.p0.p0.i64(ptr align 1 %0, ptr align 4 %v.addr, i64 4, i1 false)
  ret void
}

; Function Attrs: nounwind sspstrong uwtable
define internal void @stq_he_p(ptr noundef %ptr, i64 noundef %v) #0 {
entry:
  %ptr.addr = alloca ptr, align 8
  %v.addr = alloca i64, align 8
  store ptr %ptr, ptr %ptr.addr, align 8
  store i64 %v, ptr %v.addr, align 8
  %0 = load ptr, ptr %ptr.addr, align 8
  call void @llvm.memcpy.p0.p0.i64(ptr align 1 %0, ptr align 8 %v.addr, i64 8, i1 false)
  ret void
}

; Function Attrs: nounwind sspstrong uwtable
define dso_local i32 @on_sig_stack(i64 noundef %sp) #0 {
entry:
  %sp.addr = alloca i64, align 8
  %ts = alloca ptr, align 8
  store i64 %sp, ptr %sp.addr, align 8
  %0 = call align 8 ptr @llvm.threadlocal.address.p0(ptr align 8 @thread_cpu)
  %1 = load ptr, ptr %0, align 8
  %opaque = getelementptr inbounds %struct.CPUState, ptr %1, i32 0, i32 39
  %2 = load ptr, ptr %opaque, align 16
  store ptr %2, ptr %ts, align 8
  %3 = load i64, ptr %sp.addr, align 8
  %4 = load ptr, ptr %ts, align 8
  %sigaltstack_used = getelementptr inbounds %struct.TaskState, ptr %4, i32 0, i32 15
  %ss_sp = getelementptr inbounds %struct.target_sigaltstack, ptr %sigaltstack_used, i32 0, i32 0
  %5 = load i64, ptr %ss_sp, align 8
  %sub = sub i64 %3, %5
  %6 = load ptr, ptr %ts, align 8
  %sigaltstack_used1 = getelementptr inbounds %struct.TaskState, ptr %6, i32 0, i32 15
  %ss_size = getelementptr inbounds %struct.target_sigaltstack, ptr %sigaltstack_used1, i32 0, i32 2
  %7 = load i64, ptr %ss_size, align 8
  %cmp = icmp ult i64 %sub, %7
  %conv = zext i1 %cmp to i32
  ret i32 %conv
}

; Function Attrs: nounwind sspstrong uwtable
define internal i32 @ldl_le_p(ptr noundef %ptr) #0 {
entry:
  %ptr.addr = alloca ptr, align 8
  store ptr %ptr, ptr %ptr.addr, align 8
  %0 = load ptr, ptr %ptr.addr, align 8
  %call = call i32 @ldl_he_p(ptr noundef %0)
  ret i32 %call
}

; Function Attrs: nounwind sspstrong uwtable
define internal i64 @ldq_le_p(ptr noundef %ptr) #0 {
entry:
  %ptr.addr = alloca ptr, align 8
  store ptr %ptr, ptr %ptr.addr, align 8
  %0 = load ptr, ptr %ptr.addr, align 8
  %call = call i64 @ldq_he_p(ptr noundef %0)
  ret i64 %call
}

; Function Attrs: nounwind sspstrong uwtable
define internal void @stl_le_p(ptr noundef %ptr, i32 noundef %v) #0 {
entry:
  %ptr.addr = alloca ptr, align 8
  %v.addr = alloca i32, align 4
  store ptr %ptr, ptr %ptr.addr, align 8
  store i32 %v, ptr %v.addr, align 4
  %0 = load ptr, ptr %ptr.addr, align 8
  %1 = load i32, ptr %v.addr, align 4
  call void @stl_he_p(ptr noundef %0, i32 noundef %1)
  ret void
}

; Function Attrs: nounwind sspstrong uwtable
define dso_local i32 @sas_ss_flags(i64 noundef %sp) #0 {
entry:
  %sp.addr = alloca i64, align 8
  %ts = alloca ptr, align 8
  store i64 %sp, ptr %sp.addr, align 8
  %0 = call align 8 ptr @llvm.threadlocal.address.p0(ptr align 8 @thread_cpu)
  %1 = load ptr, ptr %0, align 8
  %opaque = getelementptr inbounds %struct.CPUState, ptr %1, i32 0, i32 39
  %2 = load ptr, ptr %opaque, align 16
  store ptr %2, ptr %ts, align 8
  %3 = load ptr, ptr %ts, align 8
  %sigaltstack_used = getelementptr inbounds %struct.TaskState, ptr %3, i32 0, i32 15
  %ss_size = getelementptr inbounds %struct.target_sigaltstack, ptr %sigaltstack_used, i32 0, i32 2
  %4 = load i64, ptr %ss_size, align 8
  %cmp = icmp eq i64 %4, 0
  br i1 %cmp, label %cond.true, label %cond.false

cond.true:                                        ; preds = %entry
  br label %cond.end

cond.false:                                       ; preds = %entry
  %5 = load i64, ptr %sp.addr, align 8
  %call = call i32 @on_sig_stack(i64 noundef %5)
  %tobool = icmp ne i32 %call, 0
  %cond = select i1 %tobool, i32 1, i32 0
  br label %cond.end

cond.end:                                         ; preds = %cond.false, %cond.true
  %cond1 = phi i32 [ 2, %cond.true ], [ %cond, %cond.false ]
  ret i32 %cond1
}

; Function Attrs: nounwind sspstrong uwtable
define internal i64 @get_sp_from_cpustate(ptr noundef %state) #0 {
entry:
  %state.addr = alloca ptr, align 8
  store ptr %state, ptr %state.addr, align 8
  %0 = load ptr, ptr %state.addr, align 8
  %gpr = getelementptr inbounds %struct.CPUArchState, ptr %0, i32 0, i32 0
  %arrayidx = getelementptr [32 x i64], ptr %gpr, i64 0, i64 2
  %1 = load i64, ptr %arrayidx, align 16
  ret i64 %1
}

; Function Attrs: nounwind sspstrong uwtable
define internal void @stq_le_p(ptr noundef %ptr, i64 noundef %v) #0 {
entry:
  %ptr.addr = alloca ptr, align 8
  %v.addr = alloca i64, align 8
  store ptr %ptr, ptr %ptr.addr, align 8
  store i64 %v, ptr %v.addr, align 8
  %0 = load ptr, ptr %ptr.addr, align 8
  %1 = load i64, ptr %v.addr, align 8
  call void @stq_he_p(ptr noundef %0, i64 noundef %1)
  ret void
}

; Function Attrs: nounwind sspstrong uwtable
define internal void @unlock_user(ptr noundef %host_ptr, i64 noundef %guest_addr, i64 noundef %len) #0 {
entry:
  %host_ptr.addr = alloca ptr, align 8
  %guest_addr.addr = alloca i64, align 8
  %len.addr = alloca i64, align 8
  store ptr %host_ptr, ptr %host_ptr.addr, align 8
  store i64 %guest_addr, ptr %guest_addr.addr, align 8
  store i64 %len, ptr %len.addr, align 8
  ret void
}

; Function Attrs: nounwind sspstrong uwtable
define dso_local i64 @target_restore_altstack(ptr noundef %uss, ptr noundef %env) #0 {
entry:
  %retval = alloca i64, align 8
  %uss.addr = alloca ptr, align 8
  %env.addr = alloca ptr, align 8
  %ts = alloca ptr, align 8
  %minstacksize = alloca i64, align 8
  %ss = alloca %struct.target_sigaltstack, align 8
  store ptr %uss, ptr %uss.addr, align 8
  store ptr %env, ptr %env.addr, align 8
  %0 = call align 8 ptr @llvm.threadlocal.address.p0(ptr align 8 @thread_cpu)
  %1 = load ptr, ptr %0, align 8
  %opaque = getelementptr inbounds %struct.CPUState, ptr %1, i32 0, i32 39
  %2 = load ptr, ptr %opaque, align 16
  store ptr %2, ptr %ts, align 8
  store i64 2048, ptr %minstacksize, align 8
  br label %do.body

do.body:                                          ; preds = %entry
  %3 = load ptr, ptr %uss.addr, align 8
  %ss_sp = getelementptr inbounds %struct.target_sigaltstack, ptr %3, i32 0, i32 0
  %call = call i64 @ldq_le_p(ptr noundef %ss_sp)
  %ss_sp1 = getelementptr inbounds %struct.target_sigaltstack, ptr %ss, i32 0, i32 0
  store i64 %call, ptr %ss_sp1, align 8
  br label %do.end

do.end:                                           ; preds = %do.body
  br label %do.body2

do.body2:                                         ; preds = %do.end
  %4 = load ptr, ptr %uss.addr, align 8
  %ss_size = getelementptr inbounds %struct.target_sigaltstack, ptr %4, i32 0, i32 2
  %call3 = call i64 @ldq_le_p(ptr noundef %ss_size)
  %ss_size4 = getelementptr inbounds %struct.target_sigaltstack, ptr %ss, i32 0, i32 2
  store i64 %call3, ptr %ss_size4, align 8
  br label %do.end5

do.end5:                                          ; preds = %do.body2
  br label %do.body6

do.body6:                                         ; preds = %do.end5
  %5 = load ptr, ptr %uss.addr, align 8
  %ss_flags = getelementptr inbounds %struct.target_sigaltstack, ptr %5, i32 0, i32 1
  %call7 = call i32 @ldl_le_p(ptr noundef %ss_flags)
  %ss_flags8 = getelementptr inbounds %struct.target_sigaltstack, ptr %ss, i32 0, i32 1
  store i32 %call7, ptr %ss_flags8, align 8
  br label %do.end9

do.end9:                                          ; preds = %do.body6
  %6 = load ptr, ptr %env.addr, align 8
  %call10 = call i64 @get_sp_from_cpustate(ptr noundef %6)
  %call11 = call i32 @on_sig_stack(i64 noundef %call10)
  %tobool = icmp ne i32 %call11, 0
  br i1 %tobool, label %if.then, label %if.end

if.then:                                          ; preds = %do.end9
  store i64 -1, ptr %retval, align 8
  br label %return

if.end:                                           ; preds = %do.end9
  %ss_flags12 = getelementptr inbounds %struct.target_sigaltstack, ptr %ss, i32 0, i32 1
  %7 = load i32, ptr %ss_flags12, align 8
  switch i32 %7, label %sw.default [
    i32 2, label %sw.bb
    i32 1, label %sw.bb15
    i32 0, label %sw.bb15
  ]

sw.default:                                       ; preds = %if.end
  store i64 -22, ptr %retval, align 8
  br label %return

sw.bb:                                            ; preds = %if.end
  %ss_size13 = getelementptr inbounds %struct.target_sigaltstack, ptr %ss, i32 0, i32 2
  store i64 0, ptr %ss_size13, align 8
  %ss_sp14 = getelementptr inbounds %struct.target_sigaltstack, ptr %ss, i32 0, i32 0
  store i64 0, ptr %ss_sp14, align 8
  br label %sw.epilog

sw.bb15:                                          ; preds = %if.end, %if.end
  %ss_size16 = getelementptr inbounds %struct.target_sigaltstack, ptr %ss, i32 0, i32 2
  %8 = load i64, ptr %ss_size16, align 8
  %9 = load i64, ptr %minstacksize, align 8
  %cmp = icmp ult i64 %8, %9
  br i1 %cmp, label %if.then17, label %if.end18

if.then17:                                        ; preds = %sw.bb15
  store i64 -12, ptr %retval, align 8
  br label %return

if.end18:                                         ; preds = %sw.bb15
  br label %sw.epilog

sw.epilog:                                        ; preds = %if.end18, %sw.bb
  %ss_sp19 = getelementptr inbounds %struct.target_sigaltstack, ptr %ss, i32 0, i32 0
  %10 = load i64, ptr %ss_sp19, align 8
  %11 = load ptr, ptr %ts, align 8
  %sigaltstack_used = getelementptr inbounds %struct.TaskState, ptr %11, i32 0, i32 15
  %ss_sp20 = getelementptr inbounds %struct.target_sigaltstack, ptr %sigaltstack_used, i32 0, i32 0
  store i64 %10, ptr %ss_sp20, align 8
  %ss_size21 = getelementptr inbounds %struct.target_sigaltstack, ptr %ss, i32 0, i32 2
  %12 = load i64, ptr %ss_size21, align 8
  %13 = load ptr, ptr %ts, align 8
  %sigaltstack_used22 = getelementptr inbounds %struct.TaskState, ptr %13, i32 0, i32 15
  %ss_size23 = getelementptr inbounds %struct.target_sigaltstack, ptr %sigaltstack_used22, i32 0, i32 2
  store i64 %12, ptr %ss_size23, align 8
  store i64 0, ptr %retval, align 8
  br label %return

return:                                           ; preds = %sw.epilog, %if.then17, %sw.default, %if.then
  %14 = load i64, ptr %retval, align 8
  ret i64 %14
}

; Function Attrs: nounwind sspstrong uwtable
define dso_local void @target_save_altstack(ptr noundef %uss, ptr noundef %env) #0 {
entry:
  %uss.addr = alloca ptr, align 8
  %env.addr = alloca ptr, align 8
  %ts = alloca ptr, align 8
  store ptr %uss, ptr %uss.addr, align 8
  store ptr %env, ptr %env.addr, align 8
  %0 = call align 8 ptr @llvm.threadlocal.address.p0(ptr align 8 @thread_cpu)
  %1 = load ptr, ptr %0, align 8
  %opaque = getelementptr inbounds %struct.CPUState, ptr %1, i32 0, i32 39
  %2 = load ptr, ptr %opaque, align 16
  store ptr %2, ptr %ts, align 8
  br label %do.body

do.body:                                          ; preds = %entry
  %3 = load ptr, ptr %uss.addr, align 8
  %ss_sp = getelementptr inbounds %struct.target_sigaltstack, ptr %3, i32 0, i32 0
  %4 = load ptr, ptr %ts, align 8
  %sigaltstack_used = getelementptr inbounds %struct.TaskState, ptr %4, i32 0, i32 15
  %ss_sp1 = getelementptr inbounds %struct.target_sigaltstack, ptr %sigaltstack_used, i32 0, i32 0
  %5 = load i64, ptr %ss_sp1, align 8
  call void @stq_le_p(ptr noundef %ss_sp, i64 noundef %5)
  br label %do.end

do.end:                                           ; preds = %do.body
  br label %do.body2

do.body2:                                         ; preds = %do.end
  %6 = load ptr, ptr %uss.addr, align 8
  %ss_flags = getelementptr inbounds %struct.target_sigaltstack, ptr %6, i32 0, i32 1
  %7 = load ptr, ptr %env.addr, align 8
  %call = call i64 @get_sp_from_cpustate(ptr noundef %7)
  %call3 = call i32 @sas_ss_flags(i64 noundef %call)
  call void @stl_le_p(ptr noundef %ss_flags, i32 noundef %call3)
  br label %do.end4

do.end4:                                          ; preds = %do.body2
  br label %do.body5

do.body5:                                         ; preds = %do.end4
  %8 = load ptr, ptr %uss.addr, align 8
  %ss_size = getelementptr inbounds %struct.target_sigaltstack, ptr %8, i32 0, i32 2
  %9 = load ptr, ptr %ts, align 8
  %sigaltstack_used6 = getelementptr inbounds %struct.TaskState, ptr %9, i32 0, i32 15
  %ss_size7 = getelementptr inbounds %struct.target_sigaltstack, ptr %sigaltstack_used6, i32 0, i32 2
  %10 = load i64, ptr %ss_size7, align 8
  call void @stq_le_p(ptr noundef %ss_size, i64 noundef %10)
  br label %do.end8

do.end8:                                          ; preds = %do.body5
  ret void
}

; Function Attrs: nounwind sspstrong uwtable
define dso_local i64 @do_sigaltstack(i64 noundef %uss_addr, i64 noundef %uoss_addr, ptr noundef %env) #0 {
entry:
  %uss_addr.addr = alloca i64, align 8
  %uoss_addr.addr = alloca i64, align 8
  %env.addr = alloca ptr, align 8
  %oss = alloca %struct.target_sigaltstack, align 8
  %uoss = alloca ptr, align 8
  %ret = alloca i64, align 8
  %uss = alloca ptr, align 8
  store i64 %uss_addr, ptr %uss_addr.addr, align 8
  store i64 %uoss_addr, ptr %uoss_addr.addr, align 8
  store ptr %env, ptr %env.addr, align 8
  store ptr null, ptr %uoss, align 8
  store i64 -14, ptr %ret, align 8
  %0 = load i64, ptr %uoss_addr.addr, align 8
  %tobool = icmp ne i64 %0, 0
  br i1 %tobool, label %if.then, label %if.end3

if.then:                                          ; preds = %entry
  %1 = load i64, ptr %uoss_addr.addr, align 8
  %call = call ptr @lock_user(i32 noundef 3, i64 noundef %1, i64 noundef 24, i1 noundef zeroext false)
  store ptr %call, ptr %uoss, align 8
  %tobool1 = icmp ne ptr %call, null
  br i1 %tobool1, label %if.end, label %if.then2

if.then2:                                         ; preds = %if.then
  br label %out

if.end:                                           ; preds = %if.then
  %2 = load ptr, ptr %env.addr, align 8
  call void @target_save_altstack(ptr noundef %oss, ptr noundef %2)
  br label %if.end3

if.end3:                                          ; preds = %if.end, %entry
  %3 = load i64, ptr %uss_addr.addr, align 8
  %tobool4 = icmp ne i64 %3, 0
  br i1 %tobool4, label %if.then5, label %if.end14

if.then5:                                         ; preds = %if.end3
  %4 = load i64, ptr %uss_addr.addr, align 8
  %call6 = call ptr @lock_user(i32 noundef 1, i64 noundef %4, i64 noundef 24, i1 noundef zeroext true)
  store ptr %call6, ptr %uss, align 8
  %tobool7 = icmp ne ptr %call6, null
  br i1 %tobool7, label %if.end9, label %if.then8

if.then8:                                         ; preds = %if.then5
  br label %out

if.end9:                                          ; preds = %if.then5
  %5 = load ptr, ptr %uss, align 8
  %6 = load ptr, ptr %env.addr, align 8
  %call10 = call i64 @target_restore_altstack(ptr noundef %5, ptr noundef %6)
  store i64 %call10, ptr %ret, align 8
  %7 = load i64, ptr %ret, align 8
  %tobool11 = icmp ne i64 %7, 0
  br i1 %tobool11, label %if.then12, label %if.end13

if.then12:                                        ; preds = %if.end9
  br label %out

if.end13:                                         ; preds = %if.end9
  br label %if.end14

if.end14:                                         ; preds = %if.end13, %if.end3
  %8 = load i64, ptr %uoss_addr.addr, align 8
  %tobool15 = icmp ne i64 %8, 0
  br i1 %tobool15, label %if.then16, label %if.end17

if.then16:                                        ; preds = %if.end14
  %9 = load ptr, ptr %uoss, align 8
  call void @llvm.memcpy.p0.p0.i64(ptr align 8 %9, ptr align 8 %oss, i64 24, i1 false)
  %10 = load ptr, ptr %uoss, align 8
  %11 = load i64, ptr %uoss_addr.addr, align 8
  call void @unlock_user(ptr noundef %10, i64 noundef %11, i64 noundef 24)
  store ptr null, ptr %uoss, align 8
  br label %if.end17

if.end17:                                         ; preds = %if.then16, %if.end14
  store i64 0, ptr %ret, align 8
  br label %out

out:                                              ; preds = %if.end17, %if.then12, %if.then8, %if.then2
  %12 = load ptr, ptr %uoss, align 8
  %tobool18 = icmp ne ptr %12, null
  br i1 %tobool18, label %if.then19, label %if.end20

if.then19:                                        ; preds = %out
  %13 = load ptr, ptr %uoss, align 8
  %14 = load i64, ptr %uoss_addr.addr, align 8
  call void @unlock_user(ptr noundef %13, i64 noundef %14, i64 noundef 0)
  br label %if.end20

if.end20:                                         ; preds = %if.then19, %out
  %15 = load i64, ptr %ret, align 8
  ret i64 %15
}