; Function Attrs: nounwind sspstrong uwtable
define dso_local range(i64 -22, 1) i64 @do_sigaltstack(i64 noundef %uss_addr, i64 noundef %uoss_addr, ptr noundef readonly captures(none) %env) local_unnamed_addr #1 {
entry:
  %tobool.not = icmp eq i64 %uoss_addr, 0
  br i1 %tobool.not, label %if.end3.thread, label %if.then

if.then:                                          ; preds = %entry
  %call = tail call ptr @lock_user(i32 noundef 3, i64 noundef %uoss_addr, i64 noundef 24, i1 noundef zeroext false) #16
  %tobool1.not = icmp eq ptr %call, null
  br i1 %tobool1.not, label %if.end20, label %if.end

if.end:                                           ; preds = %if.then
  %0 = tail call align 8 ptr @llvm.threadlocal.address.p0(ptr align 8 @thread_cpu)
  %1 = load ptr, ptr %0, align 8
  %opaque.i = getelementptr inbounds nuw i8, ptr %1, i64 624
  %2 = load ptr, ptr %opaque.i, align 16
  %sigaltstack_used.i = getelementptr inbounds nuw i8, ptr %2, i64 9168
  %3 = load i64, ptr %sigaltstack_used.i, align 8
  %ss_size.i.i = getelementptr inbounds nuw i8, ptr %2, i64 9184
  %4 = load i64, ptr %ss_size.i.i, align 8
  %cmp.i.i = icmp eq i64 %4, 0
  br i1 %cmp.i.i, label %if.end3, label %cond.false.i.i

cond.false.i.i:                                   ; preds = %if.end
  %5 = getelementptr i8, ptr %env, i64 16
  %env.val.i = load i64, ptr %5, align 16
  %sub.i.i.i = sub i64 %env.val.i, %3
  %cmp.i.i.i = icmp ult i64 %sub.i.i.i, %4
  %conv.i.i.i = zext i1 %cmp.i.i.i to i32
  br label %if.end3

if.end3:                                          ; preds = %cond.false.i.i, %if.end
  %oss.sroa.2.0 = phi i32 [ %conv.i.i.i, %cond.false.i.i ], [ 2, %if.end ]
  %tobool4.not = icmp eq i64 %uss_addr, 0
  br i1 %tobool4.not, label %if.then16, label %if.then5

if.end3.thread:                                   ; preds = %entry
  %tobool4.not26 = icmp eq i64 %uss_addr, 0
  br i1 %tobool4.not26, label %if.end20, label %if.then5

if.then5:                                         ; preds = %if.end3.thread, %if.end3
  %uoss.036 = phi ptr [ null, %if.end3.thread ], [ %call, %if.end3 ]
  %oss.sroa.0.034 = phi i64 [ undef, %if.end3.thread ], [ %3, %if.end3 ]
  %oss.sroa.2.031 = phi i32 [ undef, %if.end3.thread ], [ %oss.sroa.2.0, %if.end3 ]
  %oss.sroa.316.028 = phi i64 [ undef, %if.end3.thread ], [ %4, %if.end3 ]
  %call6 = tail call ptr @lock_user(i32 noundef 1, i64 noundef %uss_addr, i64 noundef 24, i1 noundef zeroext true) #16
  %tobool7.not = icmp eq ptr %call6, null
  br i1 %tobool7.not, label %if.end20, label %if.end9

if.end9:                                          ; preds = %if.then5
  %6 = tail call align 8 ptr @llvm.threadlocal.address.p0(ptr align 8 @thread_cpu)
  %7 = load ptr, ptr %6, align 8
  %opaque.i11 = getelementptr inbounds nuw i8, ptr %7, i64 624
  %8 = load ptr, ptr %opaque.i11, align 16
  %uss.val.i = load i64, ptr %call6, align 1
  %ss_size.i12 = getelementptr inbounds nuw i8, ptr %call6, i64 16
  %ss_size.val.i = load i64, ptr %ss_size.i12, align 1
  %9 = getelementptr i8, ptr %env, i64 16
  %env.val.i13 = load i64, ptr %9, align 16
  %sigaltstack_used.i.i = getelementptr inbounds nuw i8, ptr %8, i64 9168
  %10 = load i64, ptr %sigaltstack_used.i.i, align 8
  %sub.i.i = sub i64 %env.val.i13, %10
  %ss_size.i.i14 = getelementptr inbounds nuw i8, ptr %8, i64 9184
  %11 = load i64, ptr %ss_size.i.i14, align 8
  %cmp.i.not.i = icmp ult i64 %sub.i.i, %11
  br i1 %cmp.i.not.i, label %if.end20, label %if.end.i

if.end.i:                                         ; preds = %if.end9
  %ss_flags.i15 = getelementptr inbounds nuw i8, ptr %call6, i64 8
  %ss_flags.val.i = load i32, ptr %ss_flags.i15, align 1
  switch i32 %ss_flags.val.i, label %if.end20 [
    i32 2, label %target_restore_altstack.exit
    i32 1, label %sw.bb15.i
    i32 0, label %sw.bb15.i
  ]

sw.bb15.i:                                        ; preds = %if.end.i, %if.end.i
  %cmp.i = icmp ult i64 %ss_size.val.i, 2048
  br i1 %cmp.i, label %if.end20, label %target_restore_altstack.exit

target_restore_altstack.exit:                     ; preds = %if.end.i, %sw.bb15.i
  %ss.sroa.5.0.i = phi i64 [ %ss_size.val.i, %sw.bb15.i ], [ 0, %if.end.i ]
  %ss.sroa.0.0.i = phi i64 [ %uss.val.i, %sw.bb15.i ], [ 0, %if.end.i ]
  store i64 %ss.sroa.0.0.i, ptr %sigaltstack_used.i.i, align 8
  store i64 %ss.sroa.5.0.i, ptr %ss_size.i.i14, align 8
  br i1 %tobool.not, label %if.end20, label %if.then16

if.then16:                                        ; preds = %if.end3, %target_restore_altstack.exit
  %uoss.038 = phi ptr [ %uoss.036, %target_restore_altstack.exit ], [ %call, %if.end3 ]
  %oss.sroa.0.033 = phi i64 [ %oss.sroa.0.034, %target_restore_altstack.exit ], [ %3, %if.end3 ]
  %oss.sroa.2.030 = phi i32 [ %oss.sroa.2.031, %target_restore_altstack.exit ], [ %oss.sroa.2.0, %if.end3 ]
  %oss.sroa.316.027 = phi i64 [ %oss.sroa.316.028, %target_restore_altstack.exit ], [ %4, %if.end3 ]
  store i64 %oss.sroa.0.033, ptr %uoss.038, align 8
  %oss.sroa.2.0.uoss.0.sroa_idx = getelementptr inbounds nuw i8, ptr %uoss.038, i64 8
  store i32 %oss.sroa.2.030, ptr %oss.sroa.2.0.uoss.0.sroa_idx, align 8
  %oss.sroa.316.0.uoss.0.sroa_idx = getelementptr inbounds nuw i8, ptr %uoss.038, i64 16
  store i64 %oss.sroa.316.027, ptr %oss.sroa.316.0.uoss.0.sroa_idx, align 8
  br label %if.end20

if.end20:                                         ; preds = %if.then5, %target_restore_altstack.exit, %if.end9, %if.end.i, %sw.bb15.i, %if.end3.thread, %if.then16, %if.then
  %ret.046 = phi i64 [ 0, %if.then16 ], [ -14, %if.then ], [ 0, %if.end3.thread ], [ 0, %target_restore_altstack.exit ], [ -14, %if.then5 ], [ -12, %sw.bb15.i ], [ -22, %if.end.i ], [ -1, %if.end9 ]
  ret i64 %ret.046
}